; ModuleID = '9/1302.c'
source_filename = "9/1302.c"
target datalayout = "e-m:e-p270:32:32-p271:32:32-p272:64:64-i64:64-f80:128-n8:16:32:64-S128"
target triple = "x86_64-pc-linux-gnu"

%struct.patient = type { [11 x i8], i32 }

@.str = private unnamed_addr constant [3 x i8] c"%d\00", align 1
@.str.1 = private unnamed_addr constant [3 x i8] c"%s\00", align 1
@p = common dso_local global [1000 x %struct.patient] zeroinitializer, align 16
@.str.2 = private unnamed_addr constant [4 x i8] c" %d\00", align 1
@.str.3 = private unnamed_addr constant [4 x i8] c"%s\0A\00", align 1

; Function Attrs: noinline nounwind uwtable
define dso_local i32 @main() #0 {
  %1 = alloca i32, align 4
  %2 = alloca i32, align 4
  %3 = alloca i32, align 4
  %4 = alloca i32, align 4
  %5 = alloca i32, align 4
  %6 = alloca i32, align 4
  %7 = alloca i32, align 4
  %8 = alloca i32, align 4
  %9 = alloca i32, align 4
  %10 = alloca [1000 x i32], align 16
  %11 = alloca [1000 x i32], align 16
  %12 = alloca [1000 x [11 x i8]], align 16
  %13 = alloca [1000 x [11 x i8]], align 16
  %14 = alloca [11 x i8], align 1
  store i32 0, i32* %1, align 4
  store i32 0, i32* %7, align 4
  store i32 0, i32* %8, align 4
  %15 = call i32 (i8*, ...) @__isoc99_scanf(i8* getelementptr inbounds ([3 x i8], [3 x i8]* @.str, i64 0, i64 0), i32* %2)
  store i32 0, i32* %3, align 4
  br label %16

16:                                               ; preds = %31, %0
  %17 = load i32, i32* %3, align 4
  %18 = load i32, i32* %2, align 4
  %19 = icmp slt i32 %17, %18
  br i1 %19, label %20, label %34

20:                                               ; preds = %16
  %21 = load i32, i32* %3, align 4
  %22 = sext i32 %21 to i64
  %23 = getelementptr inbounds [1000 x %struct.patient], [1000 x %struct.patient]* @p, i64 0, i64 %22
  %24 = getelementptr inbounds %struct.patient, %struct.patient* %23, i32 0, i32 0
  %25 = call i32 (i8*, ...) @__isoc99_scanf(i8* getelementptr inbounds ([3 x i8], [3 x i8]* @.str.1, i64 0, i64 0), [11 x i8]* %24)
  %26 = load i32, i32* %3, align 4
  %27 = sext i32 %26 to i64
  %28 = getelementptr inbounds [1000 x %struct.patient], [1000 x %struct.patient]* @p, i64 0, i64 %27
  %29 = getelementptr inbounds %struct.patient, %struct.patient* %28, i32 0, i32 1
  %30 = call i32 (i8*, ...) @__isoc99_scanf(i8* getelementptr inbounds ([4 x i8], [4 x i8]* @.str.2, i64 0, i64 0), i32* %29)
  br label %31

31:                                               ; preds = %20
  %32 = load i32, i32* %3, align 4
  %33 = add nsw i32 %32, 1
  store i32 %33, i32* %3, align 4
  br label %16

34:                                               ; preds = %16
  store i32 0, i32* %3, align 4
  store i32 0, i32* %5, align 4
  store i32 0, i32* %6, align 4
  br label %35

35:                                               ; preds = %93, %34
  %36 = load i32, i32* %3, align 4
  %37 = load i32, i32* %2, align 4
  %38 = icmp slt i32 %36, %37
  br i1 %38, label %39, label %96

39:                                               ; preds = %35
  %40 = load i32, i32* %3, align 4
  %41 = sext i32 %40 to i64
  %42 = getelementptr inbounds [1000 x %struct.patient], [1000 x %struct.patient]* @p, i64 0, i64 %41
  %43 = getelementptr inbounds %struct.patient, %struct.patient* %42, i32 0, i32 1
  %44 = load i32, i32* %43, align 4
  %45 = icmp sge i32 %44, 60
  br i1 %45, label %46, label %69

46:                                               ; preds = %39
  %47 = load i32, i32* %7, align 4
  %48 = add nsw i32 %47, 1
  store i32 %48, i32* %7, align 4
  %49 = load i32, i32* %3, align 4
  %50 = sext i32 %49 to i64
  %51 = getelementptr inbounds [1000 x %struct.patient], [1000 x %struct.patient]* @p, i64 0, i64 %50
  %52 = getelementptr inbounds %struct.patient, %struct.patient* %51, i32 0, i32 1
  %53 = load i32, i32* %52, align 4
  %54 = load i32, i32* %5, align 4
  %55 = sext i32 %54 to i64
  %56 = getelementptr inbounds [1000 x i32], [1000 x i32]* %10, i64 0, i64 %55
  store i32 %53, i32* %56, align 4
  %57 = load i32, i32* %5, align 4
  %58 = sext i32 %57 to i64
  %59 = getelementptr inbounds [1000 x [11 x i8]], [1000 x [11 x i8]]* %12, i64 0, i64 %58
  %60 = getelementptr inbounds [11 x i8], [11 x i8]* %59, i64 0, i64 0
  %61 = load i32, i32* %3, align 4
  %62 = sext i32 %61 to i64
  %63 = getelementptr inbounds [1000 x %struct.patient], [1000 x %struct.patient]* @p, i64 0, i64 %62
  %64 = getelementptr inbounds %struct.patient, %struct.patient* %63, i32 0, i32 0
  %65 = getelementptr inbounds [11 x i8], [11 x i8]* %64, i64 0, i64 0
  %66 = call i8* @strcpy(i8* %60, i8* %65) #3
  %67 = load i32, i32* %5, align 4
  %68 = add nsw i32 %67, 1
  store i32 %68, i32* %5, align 4
  br label %92

69:                                               ; preds = %39
  %70 = load i32, i32* %8, align 4
  %71 = add nsw i32 %70, 1
  store i32 %71, i32* %8, align 4
  %72 = load i32, i32* %3, align 4
  %73 = sext i32 %72 to i64
  %74 = getelementptr inbounds [1000 x %struct.patient], [1000 x %struct.patient]* @p, i64 0, i64 %73
  %75 = getelementptr inbounds %struct.patient, %struct.patient* %74, i32 0, i32 1
  %76 = load i32, i32* %75, align 4
  %77 = load i32, i32* %6, align 4
  %78 = sext i32 %77 to i64
  %79 = getelementptr inbounds [1000 x i32], [1000 x i32]* %11, i64 0, i64 %78
  store i32 %76, i32* %79, align 4
  %80 = load i32, i32* %6, align 4
  %81 = sext i32 %80 to i64
  %82 = getelementptr inbounds [1000 x [11 x i8]], [1000 x [11 x i8]]* %13, i64 0, i64 %81
  %83 = getelementptr inbounds [11 x i8], [11 x i8]* %82, i64 0, i64 0
  %84 = load i32, i32* %3, align 4
  %85 = sext i32 %84 to i64
  %86 = getelementptr inbounds [1000 x %struct.patient], [1000 x %struct.patient]* @p, i64 0, i64 %85
  %87 = getelementptr inbounds %struct.patient, %struct.patient* %86, i32 0, i32 0
  %88 = getelementptr inbounds [11 x i8], [11 x i8]* %87, i64 0, i64 0
  %89 = call i8* @strcpy(i8* %83, i8* %88) #3
  %90 = load i32, i32* %6, align 4
  %91 = add nsw i32 %90, 1
  store i32 %91, i32* %6, align 4
  br label %92

92:                                               ; preds = %69, %46
  br label %93

93:                                               ; preds = %92
  %94 = load i32, i32* %3, align 4
  %95 = add nsw i32 %94, 1
  store i32 %95, i32* %3, align 4
  br label %35

96:                                               ; preds = %35
  store i32 0, i32* %4, align 4
  br label %97

97:                                               ; preds = %165, %96
  %98 = load i32, i32* %4, align 4
  %99 = load i32, i32* %2, align 4
  %100 = icmp slt i32 %98, %99
  br i1 %100, label %101, label %168

101:                                              ; preds = %97
  %102 = load i32, i32* %2, align 4
  %103 = sub nsw i32 %102, 1
  store i32 %103, i32* %5, align 4
  br label %104

104:                                              ; preds = %161, %101
  %105 = load i32, i32* %5, align 4
  %106 = load i32, i32* %4, align 4
  %107 = icmp sge i32 %105, %106
  br i1 %107, label %108, label %164

108:                                              ; preds = %104
  %109 = load i32, i32* %5, align 4
  %110 = add nsw i32 %109, 1
  %111 = sext i32 %110 to i64
  %112 = getelementptr inbounds [1000 x i32], [1000 x i32]* %10, i64 0, i64 %111
  %113 = load i32, i32* %112, align 4
  %114 = load i32, i32* %5, align 4
  %115 = sext i32 %114 to i64
  %116 = getelementptr inbounds [1000 x i32], [1000 x i32]* %10, i64 0, i64 %115
  %117 = load i32, i32* %116, align 4
  %118 = icmp sgt i32 %113, %117
  br i1 %118, label %119, label %160

119:                                              ; preds = %108
  %120 = load i32, i32* %5, align 4
  %121 = sext i32 %120 to i64
  %122 = getelementptr inbounds [1000 x i32], [1000 x i32]* %10, i64 0, i64 %121
  %123 = load i32, i32* %122, align 4
  store i32 %123, i32* %9, align 4
  %124 = load i32, i32* %5, align 4
  %125 = add nsw i32 %124, 1
  %126 = sext i32 %125 to i64
  %127 = getelementptr inbounds [1000 x i32], [1000 x i32]* %10, i64 0, i64 %126
  %128 = load i32, i32* %127, align 4
  %129 = load i32, i32* %5, align 4
  %130 = sext i32 %129 to i64
  %131 = getelementptr inbounds [1000 x i32], [1000 x i32]* %10, i64 0, i64 %130
  store i32 %128, i32* %131, align 4
  %132 = load i32, i32* %9, align 4
  %133 = load i32, i32* %5, align 4
  %134 = add nsw i32 %133, 1
  %135 = sext i32 %134 to i64
  %136 = getelementptr inbounds [1000 x i32], [1000 x i32]* %10, i64 0, i64 %135
  store i32 %132, i32* %136, align 4
  %137 = getelementptr inbounds [11 x i8], [11 x i8]* %14, i64 0, i64 0
  %138 = load i32, i32* %5, align 4
  %139 = sext i32 %138 to i64
  %140 = getelementptr inbounds [1000 x [11 x i8]], [1000 x [11 x i8]]* %12, i64 0, i64 %139
  %141 = getelementptr inbounds [11 x i8], [11 x i8]* %140, i64 0, i64 0
  %142 = call i8* @strcpy(i8* %137, i8* %141) #3
  %143 = load i32, i32* %5, align 4
  %144 = sext i32 %143 to i64
  %145 = getelementptr inbounds [1000 x [11 x i8]], [1000 x [11 x i8]]* %12, i64 0, i64 %144
  %146 = getelementptr inbounds [11 x i8], [11 x i8]* %145, i64 0, i64 0
  %147 = load i32, i32* %5, align 4
  %148 = add nsw i32 %147, 1
  %149 = sext i32 %148 to i64
  %150 = getelementptr inbounds [1000 x [11 x i8]], [1000 x [11 x i8]]* %12, i64 0, i64 %149
  %151 = getelementptr inbounds [11 x i8], [11 x i8]* %150, i64 0, i64 0
  %152 = call i8* @strcpy(i8* %146, i8* %151) #3
  %153 = load i32, i32* %5, align 4
  %154 = add nsw i32 %153, 1
  %155 = sext i32 %154 to i64
  %156 = getelementptr inbounds [1000 x [11 x i8]], [1000 x [11 x i8]]* %12, i64 0, i64 %155
  %157 = getelementptr inbounds [11 x i8], [11 x i8]* %156, i64 0, i64 0
  %158 = getelementptr inbounds [11 x i8], [11 x i8]* %14, i64 0, i64 0
  %159 = call i8* @strcpy(i8* %157, i8* %158) #3
  br label %160

160:                                              ; preds = %119, %108
  br label %161

161:                                              ; preds = %160
  %162 = load i32, i32* %5, align 4
  %163 = add nsw i32 %162, -1
  store i32 %163, i32* %5, align 4
  br label %104

164:                                              ; preds = %104
  br label %165

165:                                              ; preds = %164
  %166 = load i32, i32* %4, align 4
  %167 = add nsw i32 %166, 1
  store i32 %167, i32* %4, align 4
  br label %97

168:                                              ; preds = %97
  store i32 0, i32* %5, align 4
  br label %169

169:                                              ; preds = %179, %168
  %170 = load i32, i32* %5, align 4
  %171 = load i32, i32* %7, align 4
  %172 = icmp slt i32 %170, %171
  br i1 %172, label %173, label %182

173:                                              ; preds = %169
  %174 = load i32, i32* %5, align 4
  %175 = sext i32 %174 to i64
  %176 = getelementptr inbounds [1000 x [11 x i8]], [1000 x [11 x i8]]* %12, i64 0, i64 %175
  %177 = getelementptr inbounds [11 x i8], [11 x i8]* %176, i64 0, i64 0
  %178 = call i32 (i8*, ...) @printf(i8* getelementptr inbounds ([4 x i8], [4 x i8]* @.str.3, i64 0, i64 0), i8* %177)
  br label %179

179:                                              ; preds = %173
  %180 = load i32, i32* %5, align 4
  %181 = add nsw i32 %180, 1
  store i32 %181, i32* %5, align 4
  br label %169

182:                                              ; preds = %169
  store i32 0, i32* %6, align 4
  br label %183

183:                                              ; preds = %193, %182
  %184 = load i32, i32* %6, align 4
  %185 = load i32, i32* %8, align 4
  %186 = icmp slt i32 %184, %185
  br i1 %186, label %187, label %196

187:                                              ; preds = %183
  %188 = load i32, i32* %6, align 4
  %189 = sext i32 %188 to i64
  %190 = getelementptr inbounds [1000 x [11 x i8]], [1000 x [11 x i8]]* %13, i64 0, i64 %189
  %191 = getelementptr inbounds [11 x i8], [11 x i8]* %190, i64 0, i64 0
  %192 = call i32 (i8*, ...) @printf(i8* getelementptr inbounds ([4 x i8], [4 x i8]* @.str.3, i64 0, i64 0), i8* %191)
  br label %193

193:                                              ; preds = %187
  %194 = load i32, i32* %6, align 4
  %195 = add nsw i32 %194, 1
  store i32 %195, i32* %6, align 4
  br label %183

196:                                              ; preds = %183
  ret i32 0
}

declare dso_local i32 @__isoc99_scanf(i8*, ...) #1

; Function Attrs: nounwind
declare dso_local i8* @strcpy(i8*, i8*) #2

declare dso_local i32 @printf(i8*, ...) #1


!llvm.module.flags = !{!0}
!llvm.ident = !{!1}

!0 = !{i32 1, !"wchar_size", i32 4}
!1 = !{!"clang version 10.0.0-4ubuntu1 "}
